target datalayout = "e-m:e-p270:32:32-p271:32:32-p272:64:64-i64:64-i128:128-f80:128-n8:16:32:64-S128"
target triple = "x86_64-pc-linux-gnu"

%union.anon.38 = type { double }
%struct.timetick = type { i64, i32 }

; Function Attrs: nounwind sspstrong willreturn memory(none) uwtable
define internal i64 @gcd_timetick_int(i64 noundef %0, i64 noundef %1) #26 {
  %3 = alloca i64, align 8
  %4 = alloca i64, align 8
  %5 = alloca i64, align 8
  store i64 %0, ptr %3, align 8, !tbaa !203
  store i64 %1, ptr %4, align 8, !tbaa !203
  call void @llvm.lifetime.start.p0(i64 8, ptr %5) #27
  %6 = load i64, ptr %3, align 8, !tbaa !203
  %7 = load i64, ptr %4, align 8, !tbaa !203
  %8 = icmp slt i64 %6, %7
  br i1 %8, label %9, label %13

9:                                                ; preds = %2
  %10 = load i64, ptr %3, align 8, !tbaa !203
  store i64 %10, ptr %5, align 8, !tbaa !203
  %11 = load i64, ptr %4, align 8, !tbaa !203
  store i64 %11, ptr %3, align 8, !tbaa !203
  %12 = load i64, ptr %5, align 8, !tbaa !203
  store i64 %12, ptr %4, align 8, !tbaa !203
  br label %13

13:                                               ; preds = %9, %2
  br label %14

14:                                               ; preds = %23, %13
  br label %15

15:                                               ; preds = %14
  %16 = load i64, ptr %3, align 8, !tbaa !203
  %17 = load i64, ptr %4, align 8, !tbaa !203
  %18 = srem i64 %16, %17
  store i64 %18, ptr %5, align 8, !tbaa !203
  %19 = load i64, ptr %5, align 8, !tbaa !203
  %20 = icmp eq i64 %19, 0
  br i1 %20, label %21, label %23

21:                                               ; preds = %15
  %22 = load i64, ptr %4, align 8, !tbaa !203
  call void @llvm.lifetime.end.p0(i64 8, ptr %5) #27
  ret i64 %22

23:                                               ; preds = %15
  %24 = load i64, ptr %4, align 8, !tbaa !203
  store i64 %24, ptr %3, align 8, !tbaa !203
  %25 = load i64, ptr %5, align 8, !tbaa !203
  store i64 %25, ptr %4, align 8, !tbaa !203
  br label %14
}

; Function Attrs: inlinehint nounwind sspstrong uwtable
define internal i64 @RUBY_BIT_ROTL(i64 noundef %0, i32 noundef %1) #1 {
  %3 = alloca i64, align 8
  %4 = alloca i32, align 4
  store i64 %0, ptr %3, align 8, !tbaa !35
  store i32 %1, ptr %4, align 4, !tbaa !34
  %5 = load i64, ptr %3, align 8, !tbaa !35
  %6 = load i32, ptr %4, align 4, !tbaa !34
  %7 = sext i32 %6 to i64
  %8 = call i64 @llvm.fshl.i64(i64 %5, i64 %5, i64 %7)
  ret i64 %8
}

; Function Attrs: nounwind sspstrong uwtable
define internal void @reduce_fraction(ptr noundef %0, ptr noundef %1) #0 {
  %3 = alloca ptr, align 8
  %4 = alloca ptr, align 8
  %5 = alloca i64, align 8
  store ptr %0, ptr %3, align 8, !tbaa !294
  store ptr %1, ptr %4, align 8, !tbaa !294
  call void @llvm.lifetime.start.p0(i64 8, ptr %5) #27
  %6 = load ptr, ptr %3, align 8, !tbaa !294
  %7 = load i64, ptr %6, align 8, !tbaa !203
  %8 = load ptr, ptr %4, align 8, !tbaa !294
  %9 = load i64, ptr %8, align 8, !tbaa !203
  %10 = call i64 @gcd_timetick_int(i64 noundef %7, i64 noundef %9) #28
  store i64 %10, ptr %5, align 8, !tbaa !203
  %11 = load i64, ptr %5, align 8, !tbaa !203
  %12 = icmp ne i64 %11, 1
  br i1 %12, label %13, label %22

13:                                               ; preds = %2
  %14 = load i64, ptr %5, align 8, !tbaa !203
  %15 = load ptr, ptr %3, align 8, !tbaa !294
  %16 = load i64, ptr %15, align 8, !tbaa !203
  %17 = sdiv i64 %16, %14
  store i64 %17, ptr %15, align 8, !tbaa !203
  %18 = load i64, ptr %5, align 8, !tbaa !203
  %19 = load ptr, ptr %4, align 8, !tbaa !294
  %20 = load i64, ptr %19, align 8, !tbaa !203
  %21 = sdiv i64 %20, %18
  store i64 %21, ptr %19, align 8, !tbaa !203
  br label %22

22:                                               ; preds = %13, %2
  call void @llvm.lifetime.end.p0(i64 8, ptr %5) #27
  ret void
}

; Function Attrs: inlinehint nounwind sspstrong uwtable
define internal i64 @rb_float_new_inline(double noundef %0) #1 {
  %2 = alloca i64, align 8
  %3 = alloca double, align 8
  %4 = alloca %union.anon.38, align 8
  %5 = alloca i32, align 4
  %6 = alloca i32, align 4
  store double %0, ptr %3, align 8, !tbaa !188
  call void @llvm.lifetime.start.p0(i64 8, ptr %4) #27
  call void @llvm.lifetime.start.p0(i64 4, ptr %5) #27
  %7 = load double, ptr %3, align 8, !tbaa !188
  store double %7, ptr %4, align 8, !tbaa !66
  %8 = load i64, ptr %4, align 8, !tbaa !66
  %9 = lshr i64 %8, 60
  %10 = and i64 %9, 7
  %11 = trunc i64 %10 to i32
  store i32 %11, ptr %5, align 4, !tbaa !34
  %12 = load i64, ptr %4, align 8, !tbaa !66
  %13 = icmp ne i64 %12, 3458764513820540928
  br i1 %13, label %14, label %24

14:                                               ; preds = %1
  %15 = load i32, ptr %5, align 4, !tbaa !34
  %16 = sub i32 %15, 3
  %17 = and i32 %16, -2
  %18 = icmp ne i32 %17, 0
  br i1 %18, label %24, label %19

19:                                               ; preds = %14
  %20 = load i64, ptr %4, align 8, !tbaa !66
  %21 = call i64 @RUBY_BIT_ROTL(i64 noundef %20, i32 noundef 3)
  %22 = and i64 %21, -2
  %23 = or i64 %22, 2
  store i64 %23, ptr %2, align 8
  store i32 1, ptr %6, align 4
  br label %32

24:                                               ; preds = %14, %1
  %25 = load i64, ptr %4, align 8, !tbaa !66
  %26 = icmp eq i64 %25, 0
  br i1 %26, label %27, label %28

27:                                               ; preds = %24
  store i64 -9223372036854775806, ptr %2, align 8
  store i32 1, ptr %6, align 4
  br label %32

28:                                               ; preds = %24
  br label %29

29:                                               ; preds = %28
  %30 = load double, ptr %3, align 8, !tbaa !188
  %31 = call i64 @rb_float_new_in_heap(double noundef %30)
  store i64 %31, ptr %2, align 8
  store i32 1, ptr %6, align 4
  br label %32

32:                                               ; preds = %29, %27, %19
  call void @llvm.lifetime.end.p0(i64 4, ptr %5) #27
  call void @llvm.lifetime.end.p0(i64 8, ptr %4) #27
  %33 = load i64, ptr %2, align 8
  ret i64 %33
}

; Function Attrs: nounwind sspstrong uwtable
define internal void @reduce_factors(ptr noundef %0, i32 noundef %1, ptr noundef %2, i32 noundef %3) #0 {
  %5 = alloca ptr, align 8
  %6 = alloca i32, align 4
  %7 = alloca ptr, align 8
  %8 = alloca i32, align 4
  %9 = alloca i32, align 4
  %10 = alloca i32, align 4
  store ptr %0, ptr %5, align 8, !tbaa !294
  store i32 %1, ptr %6, align 4, !tbaa !34
  store ptr %2, ptr %7, align 8, !tbaa !294
  store i32 %3, ptr %8, align 4, !tbaa !34
  call void @llvm.lifetime.start.p0(i64 4, ptr %9) #27
  call void @llvm.lifetime.start.p0(i64 4, ptr %10) #27
  store i32 0, ptr %9, align 4, !tbaa !34
  br label %11

11:                                               ; preds = %49, %4
  %12 = load i32, ptr %9, align 4, !tbaa !34
  %13 = load i32, ptr %6, align 4, !tbaa !34
  %14 = icmp slt i32 %12, %13
  br i1 %14, label %15, label %52

15:                                               ; preds = %11
  %16 = load ptr, ptr %5, align 8, !tbaa !294
  %17 = load i32, ptr %9, align 4, !tbaa !34
  %18 = sext i32 %17 to i64
  %19 = getelementptr i64, ptr %16, i64 %18
  %20 = load i64, ptr %19, align 8, !tbaa !203
  %21 = icmp eq i64 %20, 1
  br i1 %21, label %22, label %23

22:                                               ; preds = %15
  br label %49

23:                                               ; preds = %15
  store i32 0, ptr %10, align 4, !tbaa !34
  br label %24

24:                                               ; preds = %45, %23
  %25 = load i32, ptr %10, align 4, !tbaa !34
  %26 = load i32, ptr %8, align 4, !tbaa !34
  %27 = icmp slt i32 %25, %26
  br i1 %27, label %28, label %48

28:                                               ; preds = %24
  %29 = load ptr, ptr %7, align 8, !tbaa !294
  %30 = load i32, ptr %10, align 4, !tbaa !34
  %31 = sext i32 %30 to i64
  %32 = getelementptr i64, ptr %29, i64 %31
  %33 = load i64, ptr %32, align 8, !tbaa !203
  %34 = icmp eq i64 %33, 1
  br i1 %34, label %35, label %36

35:                                               ; preds = %28
  br label %45

36:                                               ; preds = %28
  %37 = load ptr, ptr %5, align 8, !tbaa !294
  %38 = load i32, ptr %9, align 4, !tbaa !34
  %39 = sext i32 %38 to i64
  %40 = getelementptr i64, ptr %37, i64 %39
  %41 = load ptr, ptr %7, align 8, !tbaa !294
  %42 = load i32, ptr %10, align 4, !tbaa !34
  %43 = sext i32 %42 to i64
  %44 = getelementptr i64, ptr %41, i64 %43
  call void @reduce_fraction(ptr noundef %40, ptr noundef %44)
  br label %45

45:                                               ; preds = %36, %35
  %46 = load i32, ptr %10, align 4, !tbaa !34
  %47 = add i32 %46, 1
  store i32 %47, ptr %10, align 4, !tbaa !34
  br label %24, !llvm.loop !302

48:                                               ; preds = %24
  br label %49

49:                                               ; preds = %48, %22
  %50 = load i32, ptr %9, align 4, !tbaa !34
  %51 = add i32 %50, 1
  store i32 %51, ptr %9, align 4, !tbaa !34
  br label %11, !llvm.loop !303

52:                                               ; preds = %11
  call void @llvm.lifetime.end.p0(i64 4, ptr %10) #27
  call void @llvm.lifetime.end.p0(i64 4, ptr %9) #27
  ret void
}

; Function Attrs: nounwind sspstrong uwtable
define internal i64 @timetick2dblnum(ptr noundef %0, ptr noundef %1, i32 noundef %2, ptr noundef %3, i32 noundef %4) #0 {
  %6 = alloca ptr, align 8
  %7 = alloca ptr, align 8
  %8 = alloca i32, align 4
  %9 = alloca ptr, align 8
  %10 = alloca i32, align 4
  %11 = alloca double, align 8
  %12 = alloca i32, align 4
  store ptr %0, ptr %6, align 8, !tbaa !292
  store ptr %1, ptr %7, align 8, !tbaa !294
  store i32 %2, ptr %8, align 4, !tbaa !34
  store ptr %3, ptr %9, align 8, !tbaa !294
  store i32 %4, ptr %10, align 4, !tbaa !34
  call void @llvm.lifetime.start.p0(i64 8, ptr %11) #27
  call void @llvm.lifetime.start.p0(i64 4, ptr %12) #27
  %13 = load ptr, ptr %7, align 8, !tbaa !294
  %14 = load i32, ptr %8, align 4, !tbaa !34
  %15 = load ptr, ptr %9, align 8, !tbaa !294
  %16 = load i32, ptr %10, align 4, !tbaa !34
  call void @reduce_factors(ptr noundef %13, i32 noundef %14, ptr noundef %15, i32 noundef %16)
  %17 = load ptr, ptr %6, align 8, !tbaa !292
  %18 = getelementptr inbounds nuw %struct.timetick, ptr %17, i32 0, i32 0
  %19 = load i64, ptr %18, align 8, !tbaa !198
  %20 = sitofp i64 %19 to double
  %21 = load ptr, ptr %6, align 8, !tbaa !292
  %22 = getelementptr inbounds nuw %struct.timetick, ptr %21, i32 0, i32 1
  %23 = load i32, ptr %22, align 8, !tbaa !202
  %24 = sitofp i32 %23 to double
  %25 = call double @llvm.fmuladd.f64(double %20, double 1.000000e+09, double %24)
  store double %25, ptr %11, align 8, !tbaa !188
  store i32 0, ptr %12, align 4, !tbaa !34
  br label %26

26:                                               ; preds = %39, %5
  %27 = load i32, ptr %12, align 4, !tbaa !34
  %28 = load i32, ptr %8, align 4, !tbaa !34
  %29 = icmp slt i32 %27, %28
  br i1 %29, label %30, label %42

30:                                               ; preds = %26
  %31 = load ptr, ptr %7, align 8, !tbaa !294
  %32 = load i32, ptr %12, align 4, !tbaa !34
  %33 = sext i32 %32 to i64
  %34 = getelementptr i64, ptr %31, i64 %33
  %35 = load i64, ptr %34, align 8, !tbaa !203
  %36 = sitofp i64 %35 to double
  %37 = load double, ptr %11, align 8, !tbaa !188
  %38 = fmul double %37, %36
  store double %38, ptr %11, align 8, !tbaa !188
  br label %39

39:                                               ; preds = %30
  %40 = load i32, ptr %12, align 4, !tbaa !34
  %41 = add i32 %40, 1
  store i32 %41, ptr %12, align 4, !tbaa !34
  br label %26, !llvm.loop !300

42:                                               ; preds = %26
  store i32 0, ptr %12, align 4, !tbaa !34
  br label %43

43:                                               ; preds = %56, %42
  %44 = load i32, ptr %12, align 4, !tbaa !34
  %45 = load i32, ptr %10, align 4, !tbaa !34
  %46 = icmp slt i32 %44, %45
  br i1 %46, label %47, label %59

47:                                               ; preds = %43
  %48 = load ptr, ptr %9, align 8, !tbaa !294
  %49 = load i32, ptr %12, align 4, !tbaa !34
  %50 = sext i32 %49 to i64
  %51 = getelementptr i64, ptr %48, i64 %50
  %52 = load i64, ptr %51, align 8, !tbaa !203
  %53 = sitofp i64 %52 to double
  %54 = load double, ptr %11, align 8, !tbaa !188
  %55 = fdiv double %54, %53
  store double %55, ptr %11, align 8, !tbaa !188
  br label %56

56:                                               ; preds = %47
  %57 = load i32, ptr %12, align 4, !tbaa !34
  %58 = add i32 %57, 1
  store i32 %58, ptr %12, align 4, !tbaa !34
  br label %43, !llvm.loop !301

59:                                               ; preds = %43
  %60 = load double, ptr %11, align 8, !tbaa !188
  %61 = call i64 @rb_float_new_inline(double noundef %60)
  call void @llvm.lifetime.end.p0(i64 4, ptr %12) #27
  call void @llvm.lifetime.end.p0(i64 8, ptr %11) #27
  ret i64 %61
}