; Function Attrs: nounwind sspstrong uwtable
define internal fastcc i64 @timetick2dblnum(ptr noundef nonnull readonly captures(none) %0, ptr noundef nonnull captures(none) %1, i32 noundef range(i32 0, 2) %2, ptr noundef nonnull captures(none) %3) unnamed_addr #1 {
  %.not.i = icmp eq i32 %2, 0
  br i1 %.not.i, label %reduce_factors.exit.thread22, label %.lr.ph.i

reduce_factors.exit.thread22:                     ; preds = %4
  %5 = load i64, ptr %0, align 8, !tbaa !261
  %6 = sitofp i64 %5 to double
  %7 = getelementptr inbounds nuw i8, ptr %0, i64 8
  %8 = load i32, ptr %7, align 8, !tbaa !265
  %9 = sitofp i32 %8 to double
  %10 = tail call double @llvm.fmuladd.f64(double %6, double 1.000000e+09, double %9)
  br label %.preheader

.lr.ph.i:                                         ; preds = %4
  %11 = load i64, ptr %1, align 8, !tbaa !266
  %12 = icmp eq i64 %11, 1
  br i1 %12, label %.lr.ph.split, label %.lr.ph.split.preheader.i

.lr.ph.split.preheader.i:                         ; preds = %.lr.ph.i
  %13 = load i64, ptr %3, align 8, !tbaa !266
  %14 = icmp eq i64 %13, 1
  br i1 %14, label %.lr.ph.split, label %15

15:                                               ; preds = %.lr.ph.split.preheader.i
  %spec.select.i.i.i = tail call i64 @llvm.smax.i64(i64 %11, i64 %13)
  %spec.select18.i.i.i = tail call i64 @llvm.smin.i64(i64 %11, i64 %13)
  br label %16

16:                                               ; preds = %16, %15
  %.112.i.i.i = phi i64 [ %spec.select.i.i.i, %15 ], [ %.1.i.i.i, %16 ]
  %.1.i.i.i = phi i64 [ %spec.select18.i.i.i, %15 ], [ %17, %16 ]
  %17 = srem i64 %.112.i.i.i, %.1.i.i.i
  %18 = icmp eq i64 %17, 0
  br i1 %18, label %gcd_timetick_int.exit.i.i, label %16

gcd_timetick_int.exit.i.i:                        ; preds = %16
  %.not.i.i = icmp eq i64 %.1.i.i.i, 1
  br i1 %.not.i.i, label %.lr.ph.split, label %19

19:                                               ; preds = %gcd_timetick_int.exit.i.i
  %20 = sdiv i64 %11, %.1.i.i.i
  store i64 %20, ptr %1, align 8, !tbaa !266
  %21 = load i64, ptr %3, align 8, !tbaa !266
  %22 = sdiv i64 %21, %.1.i.i.i
  store i64 %22, ptr %3, align 8, !tbaa !266
  br label %.lr.ph.split

.preheader:                                       ; preds = %reduce_factors.exit.thread22, %.lr.ph.split
  %.018.lcssa = phi double [ %35, %.lr.ph.split ], [ %10, %reduce_factors.exit.thread22 ]
  %23 = load i64, ptr %3, align 8, !tbaa !266
  %24 = sitofp i64 %23 to double
  %25 = fdiv double %.018.lcssa, %24
  %26 = bitcast double %25 to i64
  %cond.i = icmp eq i64 %26, 3458764513820540928
  br i1 %cond.i, label %47, label %36

.lr.ph.split:                                     ; preds = %19, %gcd_timetick_int.exit.i.i, %.lr.ph.split.preheader.i, %.lr.ph.i
  %27 = load i64, ptr %0, align 8, !tbaa !261
  %28 = sitofp i64 %27 to double
  %29 = getelementptr inbounds nuw i8, ptr %0, i64 8
  %30 = load i32, ptr %29, align 8, !tbaa !265
  %31 = sitofp i32 %30 to double
  %32 = tail call double @llvm.fmuladd.f64(double %28, double 1.000000e+09, double %31)
  %33 = load i64, ptr %1, align 8, !tbaa !266
  %34 = sitofp i64 %33 to double
  %35 = fmul double %32, %34
  br label %.preheader

36:                                               ; preds = %.preheader
  %37 = lshr i64 %26, 60
  %38 = trunc nuw nsw i64 %37 to i32
  %39 = and i32 %38, 7
  %40 = add nsw i32 %39, -3
  %.not7.i = icmp ult i32 %40, 2
  br i1 %.not7.i, label %41, label %45

41:                                               ; preds = %36
  %42 = tail call noundef i64 @llvm.fshl.i64(i64 range(i64 3458764513820540929, 3458764513820540928) %26, i64 range(i64 3458764513820540929, 3458764513820540928) %26, i64 3)
  %43 = and i64 %42, -4
  %44 = or disjoint i64 %43, 2
  br label %rb_float_new_inline.exit

45:                                               ; preds = %36
  %46 = icmp eq i64 %26, 0
  br i1 %46, label %rb_float_new_inline.exit, label %47

47:                                               ; preds = %45, %.preheader
  %48 = tail call i64 @rb_float_new_in_heap(double noundef %25) #27
  br label %rb_float_new_inline.exit

rb_float_new_inline.exit:                         ; preds = %41, %45, %47
  %.0.i = phi i64 [ %48, %47 ], [ %44, %41 ], [ -9223372036854775806, %45 ]
  ret i64 %.0.i
}